target datalayout = "e-m:e-p270:32:32-p271:32:32-p272:64:64-i64:64-i128:128-f80:128-n8:16:32:64-S128"
target triple = "x86_64-pc-linux-gnu"

%struct._GList = type { ptr, ptr, ptr }
%struct.dt_tag_t = type { i32, ptr, ptr, ptr, i32, i32, i32 }

@.str.16 = private unnamed_addr constant [4 x i8] c"%u,\00", align 1

; Function Attrs: nounwind uwtable
define i32 @dt_tag_remove_list(ptr noundef %0) #0 {
  %2 = alloca i32, align 4
  %3 = alloca ptr, align 8
  %4 = alloca ptr, align 8
  %5 = alloca i32, align 4
  %6 = alloca i32, align 4
  %7 = alloca ptr, align 8
  %8 = alloca i32, align 4
  store ptr %0, ptr %3, align 8, !tbaa !59
  %9 = load ptr, ptr %3, align 8, !tbaa !59
  %10 = icmp ne ptr %9, null
  br i1 %10, label %12, label %11

11:                                               ; preds = %1
  store i32 0, ptr %2, align 4
  br label %70

12:                                               ; preds = %1
  call void @llvm.lifetime.start.p0(i64 8, ptr %4) #8
  store ptr null, ptr %4, align 8, !tbaa !6
  call void @llvm.lifetime.start.p0(i64 4, ptr %5) #8
  store i32 0, ptr %5, align 4, !tbaa !52
  call void @llvm.lifetime.start.p0(i64 4, ptr %6) #8
  store i32 0, ptr %6, align 4, !tbaa !52
  call void @llvm.lifetime.start.p0(i64 8, ptr %7) #8
  %13 = load ptr, ptr %3, align 8, !tbaa !59
  store ptr %13, ptr %7, align 8, !tbaa !59
  br label %14

14:                                               ; preds = %52, %12
  %15 = load ptr, ptr %7, align 8, !tbaa !59
  %16 = icmp ne ptr %15, null
  br i1 %16, label %18, label %17

17:                                               ; preds = %14
  call void @llvm.lifetime.end.p0(i64 8, ptr %7) #8
  br label %54

18:                                               ; preds = %14
  call void @llvm.lifetime.start.p0(i64 4, ptr %8) #8
  %19 = load ptr, ptr %7, align 8, !tbaa !59
  %20 = getelementptr inbounds nuw %struct._GList, ptr %19, i32 0, i32 0
  %21 = load ptr, ptr %20, align 8, !tbaa !60
  %22 = getelementptr inbounds nuw %struct.dt_tag_t, ptr %21, i32 0, i32 0
  %23 = load i32, ptr %22, align 8, !tbaa !62
  store i32 %23, ptr %8, align 4, !tbaa !52
  %24 = load i32, ptr %8, align 4, !tbaa !52
  call void (ptr, ptr, ...) @dt_util_str_cat(ptr noundef %4, ptr noundef @.str.16, i32 noundef %24)
  %25 = load i32, ptr %5, align 4, !tbaa !52
  %26 = add i32 %25, 1
  store i32 %26, ptr %5, align 4, !tbaa !52
  %27 = load ptr, ptr %4, align 8, !tbaa !6
  %28 = icmp ne ptr %27, null
  br i1 %28, label %29, label %43

29:                                               ; preds = %18
  %30 = load i32, ptr %5, align 4, !tbaa !52
  %31 = icmp ugt i32 %30, 1000
  br i1 %31, label %32, label %43

32:                                               ; preds = %29
  %33 = load ptr, ptr %4, align 8, !tbaa !6
  %34 = load ptr, ptr %4, align 8, !tbaa !6
  %35 = call i64 @strlen(ptr noundef %34) #9
  %36 = sub i64 %35, 1
  %37 = getelementptr inbounds nuw i8, ptr %33, i64 %36
  store i8 0, ptr %37, align 1, !tbaa !13
  %38 = load ptr, ptr %4, align 8, !tbaa !6
  call void @dt_tag_delete_tag_batch(ptr noundef %38)
  %39 = load ptr, ptr %4, align 8, !tbaa !6
  call void @g_free(ptr noundef %39)
  store ptr null, ptr %4, align 8, !tbaa !6
  %40 = load i32, ptr %6, align 4, !tbaa !52
  %41 = load i32, ptr %5, align 4, !tbaa !52
  %42 = add i32 %40, %41
  store i32 %42, ptr %6, align 4, !tbaa !52
  store i32 0, ptr %5, align 4, !tbaa !52
  br label %43

43:                                               ; preds = %32, %29, %18
  call void @llvm.lifetime.end.p0(i64 4, ptr %8) #8
  br label %44

44:                                               ; preds = %43
  %45 = load ptr, ptr %7, align 8, !tbaa !59
  %46 = icmp ne ptr %45, null
  br i1 %46, label %47, label %51

47:                                               ; preds = %44
  %48 = load ptr, ptr %7, align 8, !tbaa !59
  %49 = getelementptr inbounds nuw %struct._GList, ptr %48, i32 0, i32 1
  %50 = load ptr, ptr %49, align 8, !tbaa !64
  br label %52

51:                                               ; preds = %44
  br label %52

52:                                               ; preds = %51, %47
  %53 = phi ptr [ %50, %47 ], [ null, %51 ]
  store ptr %53, ptr %7, align 8, !tbaa !59
  br label %14

54:                                               ; preds = %17
  %55 = load ptr, ptr %4, align 8, !tbaa !6
  %56 = icmp ne ptr %55, null
  br i1 %56, label %57, label %68

57:                                               ; preds = %54
  %58 = load ptr, ptr %4, align 8, !tbaa !6
  %59 = load ptr, ptr %4, align 8, !tbaa !6
  %60 = call i64 @strlen(ptr noundef %59) #9
  %61 = sub i64 %60, 1
  %62 = getelementptr inbounds nuw i8, ptr %58, i64 %61
  store i8 0, ptr %62, align 1, !tbaa !13
  %63 = load ptr, ptr %4, align 8, !tbaa !6
  call void @dt_tag_delete_tag_batch(ptr noundef %63)
  %64 = load ptr, ptr %4, align 8, !tbaa !6
  call void @g_free(ptr noundef %64)
  %65 = load i32, ptr %6, align 4, !tbaa !52
  %66 = load i32, ptr %5, align 4, !tbaa !52
  %67 = add i32 %65, %66
  store i32 %67, ptr %6, align 4, !tbaa !52
  br label %68

68:                                               ; preds = %57, %54
  %69 = load i32, ptr %6, align 4, !tbaa !52
  store i32 %69, ptr %2, align 4
  call void @llvm.lifetime.end.p0(i64 4, ptr %6) #8
  call void @llvm.lifetime.end.p0(i64 4, ptr %5) #8
  call void @llvm.lifetime.end.p0(i64 8, ptr %4) #8
  br label %70

70:                                               ; preds = %68, %11
  %71 = load i32, ptr %2, align 4
  ret i32 %71
}