; Function Attrs: nounwind uwtable
define i32 @dt_tag_remove_list(ptr noundef readonly %0) local_unnamed_addr #0 {
  %2 = alloca ptr, align 8
  %.not = icmp eq ptr %0, null
  br i1 %.not, label %30, label %3

3:                                                ; preds = %1
  call void @llvm.lifetime.start.p0(i64 8, ptr nonnull %2) #11
  store ptr null, ptr %2, align 8, !tbaa !57
  br label %.outer

.outer:                                           ; preds = %.thread, %3
  %.01527.ph = phi ptr [ %22, %.thread ], [ %0, %3 ]
  %.01626.ph = phi i32 [ %20, %.thread ], [ 0, %3 ]
  br label %5

4:                                                ; preds = %12
  %.not24 = icmp eq ptr %9, null
  br i1 %.not24, label %.thread33, label %23

5:                                                ; preds = %.outer, %12
  %.01527 = phi ptr [ %14, %12 ], [ %.01527.ph, %.outer ]
  %.01725 = phi i32 [ %8, %12 ], [ 0, %.outer ]
  %6 = load ptr, ptr %.01527, align 8, !tbaa !58
  %7 = load i32, ptr %6, align 8, !tbaa !60
  call void (ptr, ptr, ...) @dt_util_str_cat(ptr noundef nonnull %2, ptr noundef nonnull @.str.16, i32 noundef %7) #11
  %8 = add i32 %.01725, 1
  %9 = load ptr, ptr %2, align 8, !tbaa !57
  %10 = icmp ne ptr %9, null
  %11 = icmp ugt i32 %8, 1000
  %or.cond = select i1 %10, i1 %11, i1 false
  br i1 %or.cond, label %.thread, label %12

12:                                               ; preds = %5
  %13 = getelementptr inbounds nuw i8, ptr %.01527, i64 8
  %14 = load ptr, ptr %13, align 8, !tbaa !62
  %.not23 = icmp eq ptr %14, null
  br i1 %.not23, label %4, label %5

.thread:                                          ; preds = %5
  %15 = call i64 @strlen(ptr noundef nonnull dereferenceable(1) %9) #13
  %16 = getelementptr i8, ptr %9, i64 %15
  %17 = getelementptr i8, ptr %16, i64 -1
  store i8 0, ptr %17, align 1, !tbaa !6
  %18 = load ptr, ptr %2, align 8, !tbaa !57
  call void @dt_tag_delete_tag_batch(ptr noundef %18)
  %19 = load ptr, ptr %2, align 8, !tbaa !57
  call void @g_free(ptr noundef %19) #11
  store ptr null, ptr %2, align 8, !tbaa !57
  %20 = add i32 %.01626.ph, %8
  %21 = getelementptr inbounds nuw i8, ptr %.01527, i64 8
  %22 = load ptr, ptr %21, align 8, !tbaa !62
  %.not2330 = icmp eq ptr %22, null
  br i1 %.not2330, label %.thread33, label %.outer

23:                                               ; preds = %4
  %24 = call i64 @strlen(ptr noundef nonnull dereferenceable(1) %9) #13
  %25 = getelementptr i8, ptr %9, i64 %24
  %26 = getelementptr i8, ptr %25, i64 -1
  store i8 0, ptr %26, align 1, !tbaa !6
  %27 = load ptr, ptr %2, align 8, !tbaa !57
  call void @dt_tag_delete_tag_batch(ptr noundef %27)
  %28 = load ptr, ptr %2, align 8, !tbaa !57
  call void @g_free(ptr noundef %28) #11
  %29 = add i32 %.01626.ph, %8
  br label %.thread33

.thread33:                                        ; preds = %.thread, %23, %4
  %.2 = phi i32 [ %29, %23 ], [ %.01626.ph, %4 ], [ %20, %.thread ]
  call void @llvm.lifetime.end.p0(i64 8, ptr nonnull %2) #11
  br label %30

30:                                               ; preds = %1, %.thread33
  %.0 = phi i32 [ %.2, %.thread33 ], [ 0, %1 ]
  ret i32 %.0
}